target datalayout = "e-m:e-p270:32:32-p271:32:32-p272:64:64-i64:64-i128:128-f80:128-n8:16:32:64-S128"
target triple = "x86_64-pc-linux-gnu"

%struct.psa_key_attributes_s = type { i16, i16, i32, %struct.psa_key_policy_s, i32 }
%struct.psa_key_policy_s = type { i32, i32, i32 }

; Function Attrs: nounwind uwtable
define hidden i32 @mbedtls_psa_ecp_export_public_key(ptr noundef %0, ptr noundef %1, i64 noundef %2, ptr noundef %3, i64 noundef %4, ptr noundef %5) #0 {
  %7 = alloca i32, align 4
  %8 = alloca ptr, align 8
  %9 = alloca ptr, align 8
  %10 = alloca i64, align 8
  %11 = alloca ptr, align 8
  %12 = alloca i64, align 8
  %13 = alloca ptr, align 8
  %14 = alloca i32, align 4
  %15 = alloca ptr, align 8
  %16 = alloca i32, align 4
  store ptr %0, ptr %8, align 8, !tbaa !28
  store ptr %1, ptr %9, align 8, !tbaa !9
  store i64 %2, ptr %10, align 8, !tbaa !7
  store ptr %3, ptr %11, align 8, !tbaa !9
  store i64 %4, ptr %12, align 8, !tbaa !7
  store ptr %5, ptr %13, align 8, !tbaa !27
  call void @llvm.lifetime.start.p0(i64 4, ptr %14) #7
  store i32 -151, ptr %14, align 4, !tbaa !15
  call void @llvm.lifetime.start.p0(i64 8, ptr %15) #7
  store ptr null, ptr %15, align 8, !tbaa !17
  %17 = load ptr, ptr %8, align 8, !tbaa !28
  %18 = getelementptr inbounds nuw %struct.psa_key_attributes_s, ptr %17, i32 0, i32 0
  %19 = load i16, ptr %18, align 4, !tbaa !30
  %20 = load ptr, ptr %8, align 8, !tbaa !28
  %21 = getelementptr inbounds nuw %struct.psa_key_attributes_s, ptr %20, i32 0, i32 1
  %22 = load i16, ptr %21, align 2, !tbaa !33
  %23 = zext i16 %22 to i64
  %24 = load ptr, ptr %9, align 8, !tbaa !9
  %25 = load i64, ptr %10, align 8, !tbaa !7
  %26 = call i32 @mbedtls_psa_ecp_load_representation(i16 noundef zeroext %19, i64 noundef %23, ptr noundef %24, i64 noundef %25, ptr noundef %15)
  store i32 %26, ptr %14, align 4, !tbaa !15
  %27 = load i32, ptr %14, align 4, !tbaa !15
  %28 = icmp ne i32 %27, 0
  br i1 %28, label %29, label %31

29:                                               ; preds = %6
  %30 = load i32, ptr %14, align 4, !tbaa !15
  store i32 %30, ptr %7, align 4
  store i32 1, ptr %16, align 4
  br label %60

31:                                               ; preds = %6
  %32 = load ptr, ptr %8, align 8, !tbaa !28
  %33 = getelementptr inbounds nuw %struct.psa_key_attributes_s, ptr %32, i32 0, i32 0
  %34 = load i16, ptr %33, align 4, !tbaa !30
  %35 = zext i16 %34 to i32
  %36 = and i32 %35, -12289
  %37 = and i32 %36, -256
  %38 = icmp eq i32 %37, 16640
  br i1 %38, label %39, label %45

39:                                               ; preds = %31
  %40 = load ptr, ptr %8, align 8, !tbaa !28
  %41 = getelementptr inbounds nuw %struct.psa_key_attributes_s, ptr %40, i32 0, i32 0
  %42 = load i16, ptr %41, align 4, !tbaa !30
  %43 = zext i16 %42 to i32
  %44 = and i32 %43, 255
  br label %46

45:                                               ; preds = %31
  br label %46

46:                                               ; preds = %45, %39
  %47 = phi i32 [ %44, %39 ], [ 0, %45 ]
  %48 = trunc i32 %47 to i8
  %49 = zext i8 %48 to i32
  %50 = or i32 16640, %49
  %51 = trunc i32 %50 to i16
  %52 = load ptr, ptr %15, align 8, !tbaa !17
  %53 = load ptr, ptr %11, align 8, !tbaa !9
  %54 = load i64, ptr %12, align 8, !tbaa !7
  %55 = load ptr, ptr %13, align 8, !tbaa !27
  %56 = call i32 @mbedtls_psa_ecp_export_key(i16 noundef zeroext %51, ptr noundef %52, ptr noundef %53, i64 noundef %54, ptr noundef %55)
  store i32 %56, ptr %14, align 4, !tbaa !15
  %57 = load ptr, ptr %15, align 8, !tbaa !17
  call void @mbedtls_ecp_keypair_free(ptr noundef %57)
  %58 = load ptr, ptr %15, align 8, !tbaa !17
  call void @free(ptr noundef %58) #7
  %59 = load i32, ptr %14, align 4, !tbaa !15
  store i32 %59, ptr %7, align 4
  store i32 1, ptr %16, align 4
  br label %60

60:                                               ; preds = %46, %29
  call void @llvm.lifetime.end.p0(i64 8, ptr %15) #7
  call void @llvm.lifetime.end.p0(i64 4, ptr %14) #7
  %61 = load i32, ptr %7, align 4
  ret i32 %61
}