; Function Attrs: nounwind uwtable
define hidden i32 @mbedtls_psa_ecp_export_public_key(ptr noundef readonly captures(none) %0, ptr noundef %1, i64 noundef %2, ptr noundef %3, i64 noundef %4, ptr noundef %5) local_unnamed_addr #0 {
  %7 = alloca ptr, align 8
  call void @llvm.lifetime.start.p0(i64 8, ptr nonnull %7) #7
  store ptr null, ptr %7, align 8, !tbaa !16
  %8 = load i16, ptr %0, align 4, !tbaa !18
  %9 = getelementptr inbounds nuw i8, ptr %0, i64 2
  %10 = load i16, ptr %9, align 2, !tbaa !21
  %11 = zext i16 %10 to i64
  %12 = call i32 @mbedtls_psa_ecp_load_representation(i16 noundef zeroext %8, i64 noundef %11, ptr noundef %1, i64 noundef %2, ptr noundef nonnull %7)
  %.not = icmp eq i32 %12, 0
  br i1 %.not, label %13, label %20

13:                                               ; preds = %6
  %14 = load i16, ptr %0, align 4, !tbaa !18
  %15 = and i16 %14, -12544
  %16 = icmp eq i16 %15, 16640
  %17 = and i16 %14, 16895
  %spec.select = select i1 %16, i16 %17, i16 16640
  %18 = load ptr, ptr %7, align 8, !tbaa !16
  %19 = tail call i32 @mbedtls_psa_ecp_export_key(i16 noundef zeroext %spec.select, ptr noundef %18, ptr noundef %3, i64 noundef %4, ptr noundef %5)
  tail call void @mbedtls_ecp_keypair_free(ptr noundef %18) #7
  tail call void @free(ptr noundef %18) #7
  br label %20

20:                                               ; preds = %6, %13
  %.0 = phi i32 [ %19, %13 ], [ %12, %6 ]
  call void @llvm.lifetime.end.p0(i64 8, ptr nonnull %7) #7
  ret i32 %.0
}